target datalayout = "e-m:e-p270:32:32-p271:32:32-p272:64:64-i64:64-i128:128-f80:128-n8:16:32:64-S128"
target triple = "x86_64-pc-linux-gnu"

%struct.v3_ext_method = type { i32, i32, ptr, ptr, ptr, ptr, ptr, ptr, ptr, ptr, ptr, ptr, ptr, ptr }

; Function Attrs: nounwind uwtable
define internal void @ext_list_free(ptr noundef %0) #0 {
  %2 = alloca ptr, align 8
  store ptr %0, ptr %2, align 8, !tbaa !6
  %3 = load ptr, ptr %2, align 8, !tbaa !6
  %4 = getelementptr inbounds nuw %struct.v3_ext_method, ptr %3, i32 0, i32 1
  %5 = load i32, ptr %4, align 4, !tbaa !19
  %6 = and i32 %5, 1
  %7 = icmp ne i32 %6, 0
  br i1 %7, label %8, label %10

8:                                                ; preds = %1
  %9 = load ptr, ptr %2, align 8, !tbaa !6
  call void @free(ptr noundef %9) #7
  br label %10

10:                                               ; preds = %8, %1
  ret void
}